; Function Attrs: mustprogress uwtable
define hidden noundef i32 @_ZNK4ncnn5Split7forwardERKSt6vectorINS_3MatESaIS2_EERS4_RKNS_6OptionE(ptr nocapture nonnull readnone align 8 %0, ptr nocapture noundef nonnull readonly align 8 dereferenceable(24) %1, ptr nocapture noundef nonnull readonly align 8 dereferenceable(24) %2, ptr nocapture nonnull readnone align 8 %3) unnamed_addr #0 align 2 {
  %5 = load ptr, ptr %1, align 8
  %6 = getelementptr inbounds nuw i8, ptr %2, i64 8
  %7 = load ptr, ptr %6, align 8
  %8 = load ptr, ptr %2, align 8
  %.not37 = icmp eq ptr %7, %8
  br i1 %.not37, label %._crit_edge, label %.lr.ph

.lr.ph:                                           ; preds = %4
  %9 = getelementptr inbounds nuw i8, ptr %5, i64 8
  %10 = getelementptr inbounds nuw i8, ptr %5, i64 16
  %11 = getelementptr inbounds nuw i8, ptr %5, i64 24
  %12 = getelementptr inbounds nuw i8, ptr %5, i64 32
  %13 = getelementptr inbounds nuw i8, ptr %5, i64 40
  %14 = getelementptr inbounds nuw i8, ptr %5, i64 44
  %15 = getelementptr inbounds nuw i8, ptr %5, i64 48
  %16 = getelementptr inbounds nuw i8, ptr %5, i64 52
  %17 = getelementptr inbounds nuw i8, ptr %5, i64 56
  %18 = getelementptr inbounds nuw i8, ptr %5, i64 64
  br label %19

19:                                               ; preds = %.lr.ph, %65
  %20 = phi ptr [ %8, %.lr.ph ], [ %66, %65 ]
  %21 = phi ptr [ %7, %.lr.ph ], [ %67, %65 ]
  %.036 = phi i64 [ 0, %.lr.ph ], [ %68, %65 ]
  %22 = getelementptr inbounds %"class.ncnn::Mat", ptr %20, i64 %.036
  %23 = icmp eq ptr %22, %5
  br i1 %23, label %65, label %24

24:                                               ; preds = %19
  %25 = load ptr, ptr %9, align 8
  %.not = icmp eq ptr %25, null
  br i1 %.not, label %28, label %26

26:                                               ; preds = %24
  %27 = atomicrmw add ptr %25, i32 1 acq_rel, align 4
  br label %28

28:                                               ; preds = %26, %24
  %29 = getelementptr inbounds nuw i8, ptr %22, i64 8
  %30 = load ptr, ptr %29, align 8
  %.not33 = icmp eq ptr %30, null
  br i1 %.not33, label %44, label %31

31:                                               ; preds = %28
  %32 = atomicrmw add ptr %30, i32 -1 acq_rel, align 4
  %33 = icmp eq i32 %32, 1
  br i1 %33, label %34, label %44

34:                                               ; preds = %31
  %35 = getelementptr inbounds nuw i8, ptr %22, i64 32
  %36 = load ptr, ptr %35, align 8
  %.not34 = icmp eq ptr %36, null
  %37 = load ptr, ptr %22, align 8
  br i1 %.not34, label %42, label %38

38:                                               ; preds = %34
  %39 = load ptr, ptr %36, align 8
  %40 = getelementptr inbounds i8, ptr %39, i64 24
  %41 = load ptr, ptr %40, align 8
  tail call void %41(ptr noundef nonnull align 8 dereferenceable(8) %36, ptr noundef %37)
  br label %44

42:                                               ; preds = %34
  %.not35 = icmp eq ptr %37, null
  br i1 %.not35, label %44, label %43

43:                                               ; preds = %42
  tail call void @free(ptr noundef nonnull %37) #7
  br label %44

44:                                               ; preds = %38, %43, %42, %31, %28
  %45 = getelementptr inbounds nuw i8, ptr %22, i64 16
  %46 = getelementptr inbounds nuw i8, ptr %22, i64 24
  %47 = getelementptr inbounds nuw i8, ptr %22, i64 40
  %48 = getelementptr inbounds nuw i8, ptr %22, i64 44
  %49 = getelementptr inbounds nuw i8, ptr %22, i64 48
  %50 = getelementptr inbounds nuw i8, ptr %22, i64 52
  %51 = getelementptr inbounds nuw i8, ptr %22, i64 56
  %52 = getelementptr inbounds nuw i8, ptr %22, i64 64
  store i64 0, ptr %52, align 8
  tail call void @llvm.memset.p0.i64(ptr noundef nonnull align 8 dereferenceable(28) %22, i8 0, i64 28, i1 false)
  tail call void @llvm.memset.p0.i64(ptr noundef nonnull align 8 dereferenceable(20) %47, i8 0, i64 20, i1 false)
  %53 = load ptr, ptr %5, align 8
  store ptr %53, ptr %22, align 8
  %54 = load ptr, ptr %9, align 8
  store ptr %54, ptr %29, align 8
  %55 = load i64, ptr %10, align 8
  store i64 %55, ptr %45, align 8
  %56 = load i32, ptr %11, align 8
  store i32 %56, ptr %46, align 8
  %57 = load ptr, ptr %12, align 8
  %58 = getelementptr inbounds nuw i8, ptr %22, i64 32
  store ptr %57, ptr %58, align 8
  %59 = load i32, ptr %13, align 8
  store i32 %59, ptr %47, align 8
  %60 = load i32, ptr %14, align 4
  store i32 %60, ptr %48, align 4
  %61 = load i32, ptr %15, align 8
  store i32 %61, ptr %49, align 8
  %62 = load i32, ptr %16, align 4
  store i32 %62, ptr %50, align 4
  %63 = load i32, ptr %17, align 8
  store i32 %63, ptr %51, align 8
  %64 = load i64, ptr %18, align 8
  store i64 %64, ptr %52, align 8
  %.pre = load ptr, ptr %6, align 8
  %.pre38 = load ptr, ptr %2, align 8
  br label %65

65:                                               ; preds = %19, %44
  %66 = phi ptr [ %20, %19 ], [ %.pre38, %44 ]
  %67 = phi ptr [ %21, %19 ], [ %.pre, %44 ]
  %68 = add nuw i64 %.036, 1
  %69 = ptrtoint ptr %67 to i64
  %70 = ptrtoint ptr %66 to i64
  %71 = sub i64 %69, %70
  %72 = sdiv exact i64 %71, 72
  %73 = icmp ult i64 %68, %72
  br i1 %73, label %19, label %._crit_edge, !llvm.loop !4

._crit_edge:                                      ; preds = %65, %4
  ret i32 0
}